target datalayout = "e-m:e-p270:32:32-p271:32:32-p272:64:64-i64:64-i128:128-f80:128-n8:16:32:64-S128"
target triple = "x86_64-pc-linux-gnu"

; Function Attrs: mustprogress nounwind uwtable
define internal void @_ZN2cvL10minMaxIdx_IffEEvPKT_PKhPT0_S7_PmS8_im(ptr noundef %0, ptr noundef %1, ptr noundef %2, ptr noundef %3, ptr noundef %4, ptr noundef %5, i32 noundef %6, i64 noundef %7) #4 {
  %9 = alloca ptr, align 8
  %10 = alloca ptr, align 8
  %11 = alloca ptr, align 8
  %12 = alloca ptr, align 8
  %13 = alloca ptr, align 8
  %14 = alloca ptr, align 8
  %15 = alloca i32, align 4
  %16 = alloca i64, align 8
  %17 = alloca float, align 4
  %18 = alloca float, align 4
  %19 = alloca i64, align 8
  %20 = alloca i64, align 8
  %21 = alloca i32, align 4
  %22 = alloca float, align 4
  %23 = alloca i32, align 4
  %24 = alloca float, align 4
  store ptr %0, ptr %9, align 8, !tbaa !79
  store ptr %1, ptr %10, align 8, !tbaa !40
  store ptr %2, ptr %11, align 8, !tbaa !79
  store ptr %3, ptr %12, align 8, !tbaa !79
  store ptr %4, ptr %13, align 8, !tbaa !76
  store ptr %5, ptr %14, align 8, !tbaa !76
  store i32 %6, ptr %15, align 4, !tbaa !12
  store i64 %7, ptr %16, align 8, !tbaa !28
  call void @llvm.lifetime.start.p0(i64 4, ptr %17) #15
  %25 = load ptr, ptr %11, align 8, !tbaa !79
  %26 = load float, ptr %25, align 4, !tbaa !30
  store float %26, ptr %17, align 4, !tbaa !30
  call void @llvm.lifetime.start.p0(i64 4, ptr %18) #15
  %27 = load ptr, ptr %12, align 8, !tbaa !79
  %28 = load float, ptr %27, align 4, !tbaa !30
  store float %28, ptr %18, align 4, !tbaa !30
  call void @llvm.lifetime.start.p0(i64 8, ptr %19) #15
  %29 = load ptr, ptr %13, align 8, !tbaa !76
  %30 = load i64, ptr %29, align 8, !tbaa !28
  store i64 %30, ptr %19, align 8, !tbaa !28
  call void @llvm.lifetime.start.p0(i64 8, ptr %20) #15
  %31 = load ptr, ptr %14, align 8, !tbaa !76
  %32 = load i64, ptr %31, align 8, !tbaa !28
  store i64 %32, ptr %20, align 8, !tbaa !28
  %33 = load ptr, ptr %10, align 8, !tbaa !40
  %34 = icmp ne ptr %33, null
  br i1 %34, label %71, label %35

35:                                               ; preds = %8
  call void @llvm.lifetime.start.p0(i64 4, ptr %21) #15
  store i32 0, ptr %21, align 4, !tbaa !12
  br label %36

36:                                               ; preds = %67, %35
  %37 = load i32, ptr %21, align 4, !tbaa !12
  %38 = load i32, ptr %15, align 4, !tbaa !12
  %39 = icmp slt i32 %37, %38
  br i1 %39, label %41, label %40

40:                                               ; preds = %36
  call void @llvm.lifetime.end.p0(i64 4, ptr %21) #15
  br label %70

41:                                               ; preds = %36
  call void @llvm.lifetime.start.p0(i64 4, ptr %22) #15
  %42 = load ptr, ptr %9, align 8, !tbaa !79
  %43 = load i32, ptr %21, align 4, !tbaa !12
  %44 = sext i32 %43 to i64
  %45 = getelementptr inbounds float, ptr %42, i64 %44
  %46 = load float, ptr %45, align 4, !tbaa !30
  store float %46, ptr %22, align 4, !tbaa !30
  %47 = load float, ptr %22, align 4, !tbaa !30
  %48 = load float, ptr %17, align 4, !tbaa !30
  %49 = fcmp olt float %47, %48
  br i1 %49, label %50, label %56

50:                                               ; preds = %41
  %51 = load float, ptr %22, align 4, !tbaa !30
  store float %51, ptr %17, align 4, !tbaa !30
  %52 = load i64, ptr %16, align 8, !tbaa !28
  %53 = load i32, ptr %21, align 4, !tbaa !12
  %54 = sext i32 %53 to i64
  %55 = add i64 %52, %54
  store i64 %55, ptr %19, align 8, !tbaa !28
  br label %56

56:                                               ; preds = %50, %41
  %57 = load float, ptr %22, align 4, !tbaa !30
  %58 = load float, ptr %18, align 4, !tbaa !30
  %59 = fcmp ogt float %57, %58
  br i1 %59, label %60, label %66

60:                                               ; preds = %56
  %61 = load float, ptr %22, align 4, !tbaa !30
  store float %61, ptr %18, align 4, !tbaa !30
  %62 = load i64, ptr %16, align 8, !tbaa !28
  %63 = load i32, ptr %21, align 4, !tbaa !12
  %64 = sext i32 %63 to i64
  %65 = add i64 %62, %64
  store i64 %65, ptr %20, align 8, !tbaa !28
  br label %66

66:                                               ; preds = %60, %56
  call void @llvm.lifetime.end.p0(i64 4, ptr %22) #15
  br label %67

67:                                               ; preds = %66
  %68 = load i32, ptr %21, align 4, !tbaa !12
  %69 = add nsw i32 %68, 1
  store i32 %69, ptr %21, align 4, !tbaa !12
  br label %36, !llvm.loop !94

70:                                               ; preds = %40
  br label %121

71:                                               ; preds = %8
  call void @llvm.lifetime.start.p0(i64 4, ptr %23) #15
  store i32 0, ptr %23, align 4, !tbaa !12
  br label %72

72:                                               ; preds = %117, %71
  %73 = load i32, ptr %23, align 4, !tbaa !12
  %74 = load i32, ptr %15, align 4, !tbaa !12
  %75 = icmp slt i32 %73, %74
  br i1 %75, label %77, label %76

76:                                               ; preds = %72
  call void @llvm.lifetime.end.p0(i64 4, ptr %23) #15
  br label %120

77:                                               ; preds = %72
  call void @llvm.lifetime.start.p0(i64 4, ptr %24) #15
  %78 = load ptr, ptr %9, align 8, !tbaa !79
  %79 = load i32, ptr %23, align 4, !tbaa !12
  %80 = sext i32 %79 to i64
  %81 = getelementptr inbounds float, ptr %78, i64 %80
  %82 = load float, ptr %81, align 4, !tbaa !30
  store float %82, ptr %24, align 4, !tbaa !30
  %83 = load ptr, ptr %10, align 8, !tbaa !40
  %84 = load i32, ptr %23, align 4, !tbaa !12
  %85 = sext i32 %84 to i64
  %86 = getelementptr inbounds i8, ptr %83, i64 %85
  %87 = load i8, ptr %86, align 1, !tbaa !81
  %88 = icmp ne i8 %87, 0
  br i1 %88, label %89, label %99

89:                                               ; preds = %77
  %90 = load float, ptr %24, align 4, !tbaa !30
  %91 = load float, ptr %17, align 4, !tbaa !30
  %92 = fcmp olt float %90, %91
  br i1 %92, label %93, label %99

93:                                               ; preds = %89
  %94 = load float, ptr %24, align 4, !tbaa !30
  store float %94, ptr %17, align 4, !tbaa !30
  %95 = load i64, ptr %16, align 8, !tbaa !28
  %96 = load i32, ptr %23, align 4, !tbaa !12
  %97 = sext i32 %96 to i64
  %98 = add i64 %95, %97
  store i64 %98, ptr %19, align 8, !tbaa !28
  br label %99

99:                                               ; preds = %93, %89, %77
  %100 = load ptr, ptr %10, align 8, !tbaa !40
  %101 = load i32, ptr %23, align 4, !tbaa !12
  %102 = sext i32 %101 to i64
  %103 = getelementptr inbounds i8, ptr %100, i64 %102
  %104 = load i8, ptr %103, align 1, !tbaa !81
  %105 = icmp ne i8 %104, 0
  br i1 %105, label %106, label %116

106:                                              ; preds = %99
  %107 = load float, ptr %24, align 4, !tbaa !30
  %108 = load float, ptr %18, align 4, !tbaa !30
  %109 = fcmp ogt float %107, %108
  br i1 %109, label %110, label %116

110:                                              ; preds = %106
  %111 = load float, ptr %24, align 4, !tbaa !30
  store float %111, ptr %18, align 4, !tbaa !30
  %112 = load i64, ptr %16, align 8, !tbaa !28
  %113 = load i32, ptr %23, align 4, !tbaa !12
  %114 = sext i32 %113 to i64
  %115 = add i64 %112, %114
  store i64 %115, ptr %20, align 8, !tbaa !28
  br label %116

116:                                              ; preds = %110, %106, %99
  call void @llvm.lifetime.end.p0(i64 4, ptr %24) #15
  br label %117

117:                                              ; preds = %116
  %118 = load i32, ptr %23, align 4, !tbaa !12
  %119 = add nsw i32 %118, 1
  store i32 %119, ptr %23, align 4, !tbaa !12
  br label %72, !llvm.loop !95

120:                                              ; preds = %76
  br label %121

121:                                              ; preds = %120, %70
  %122 = load i64, ptr %19, align 8, !tbaa !28
  %123 = load ptr, ptr %13, align 8, !tbaa !76
  store i64 %122, ptr %123, align 8, !tbaa !28
  %124 = load i64, ptr %20, align 8, !tbaa !28
  %125 = load ptr, ptr %14, align 8, !tbaa !76
  store i64 %124, ptr %125, align 8, !tbaa !28
  %126 = load float, ptr %17, align 4, !tbaa !30
  %127 = load ptr, ptr %11, align 8, !tbaa !79
  store float %126, ptr %127, align 4, !tbaa !30
  %128 = load float, ptr %18, align 4, !tbaa !30
  %129 = load ptr, ptr %12, align 8, !tbaa !79
  store float %128, ptr %129, align 4, !tbaa !30
  call void @llvm.lifetime.end.p0(i64 8, ptr %20) #15
  call void @llvm.lifetime.end.p0(i64 8, ptr %19) #15
  call void @llvm.lifetime.end.p0(i64 4, ptr %18) #15
  call void @llvm.lifetime.end.p0(i64 4, ptr %17) #15
  ret void
}

; Function Attrs: mustprogress uwtable
define internal void @_ZN2cvL13minMaxIdx_32fEPKfPKhPfS4_PmS5_im(ptr noundef %0, ptr noundef %1, ptr noundef %2, ptr noundef %3, ptr noundef %4, ptr noundef %5, i32 noundef %6, i64 noundef %7) #0 {
  %9 = alloca ptr, align 8
  %10 = alloca ptr, align 8
  %11 = alloca ptr, align 8
  %12 = alloca ptr, align 8
  %13 = alloca ptr, align 8
  %14 = alloca ptr, align 8
  %15 = alloca i32, align 4
  %16 = alloca i64, align 8
  store ptr %0, ptr %9, align 8, !tbaa !79
  store ptr %1, ptr %10, align 8, !tbaa !40
  store ptr %2, ptr %11, align 8, !tbaa !79
  store ptr %3, ptr %12, align 8, !tbaa !79
  store ptr %4, ptr %13, align 8, !tbaa !76
  store ptr %5, ptr %14, align 8, !tbaa !76
  store i32 %6, ptr %15, align 4, !tbaa !12
  store i64 %7, ptr %16, align 8, !tbaa !28
  %17 = load ptr, ptr %9, align 8, !tbaa !79
  %18 = load ptr, ptr %10, align 8, !tbaa !40
  %19 = load ptr, ptr %11, align 8, !tbaa !79
  %20 = load ptr, ptr %12, align 8, !tbaa !79
  %21 = load ptr, ptr %13, align 8, !tbaa !76
  %22 = load ptr, ptr %14, align 8, !tbaa !76
  %23 = load i32, ptr %15, align 4, !tbaa !12
  %24 = load i64, ptr %16, align 8, !tbaa !28
  call void @_ZN2cvL10minMaxIdx_IffEEvPKT_PKhPT0_S7_PmS8_im(ptr noundef %17, ptr noundef %18, ptr noundef %19, ptr noundef %20, ptr noundef %21, ptr noundef %22, i32 noundef %23, i64 noundef %24)
  ret void
}