; Function Attrs: mustprogress nofree norecurse nosync nounwind memory(argmem: readwrite) uwtable
define internal void @_ZN2cvL13minMaxIdx_32fEPKfPKhPfS4_PmS5_im(ptr noundef readonly captures(none) %0, ptr noundef readonly %1, ptr noundef captures(none) %2, ptr noundef captures(none) %3, ptr noundef captures(none) %4, ptr noundef captures(none) %5, i32 noundef %6, i64 noundef %7) #7 {
  %9 = load float, ptr %2, align 4, !tbaa !36
  %10 = load float, ptr %3, align 4, !tbaa !36
  %11 = load i64, ptr %4, align 8, !tbaa !34
  %12 = load i64, ptr %5, align 8, !tbaa !34
  %.not.i = icmp eq ptr %1, null
  %13 = icmp sgt i32 %6, 0
  br i1 %.not.i, label %.preheader.i, label %.preheader71.i

.preheader71.i:                                   ; preds = %8
  br i1 %13, label %.lr.ph.preheader.i, label %_ZN2cvL10minMaxIdx_IffEEvPKT_PKhPT0_S7_PmS8_im.exit

.lr.ph.preheader.i:                               ; preds = %.preheader71.i
  %wide.trip.count.i = zext nneg i32 %6 to i64
  br label %.lr.ph.i

.preheader.i:                                     ; preds = %8
  br i1 %13, label %.lr.ph86.preheader.i, label %_ZN2cvL10minMaxIdx_IffEEvPKT_PKhPT0_S7_PmS8_im.exit

.lr.ph86.preheader.i:                             ; preds = %.preheader.i
  %wide.trip.count96.i = zext nneg i32 %6 to i64
  br label %.lr.ph86.i

.lr.ph86.i:                                       ; preds = %.lr.ph86.i, %.lr.ph86.preheader.i
  %indvars.iv93.i = phi i64 [ 0, %.lr.ph86.preheader.i ], [ %indvars.iv.next94.i, %.lr.ph86.i ]
  %.085.i = phi float [ %9, %.lr.ph86.preheader.i ], [ %.1.i, %.lr.ph86.i ]
  %.04784.i = phi float [ %10, %.lr.ph86.preheader.i ], [ %.148.i, %.lr.ph86.i ]
  %.05382.i = phi i64 [ %12, %.lr.ph86.preheader.i ], [ %.154.i, %.lr.ph86.i ]
  %.05881.i = phi i64 [ %11, %.lr.ph86.preheader.i ], [ %.159.i, %.lr.ph86.i ]
  %14 = getelementptr inbounds nuw float, ptr %0, i64 %indvars.iv93.i
  %15 = load float, ptr %14, align 4, !tbaa !36
  %16 = fcmp olt float %15, %.085.i
  %17 = add i64 %indvars.iv93.i, %7
  %.159.i = select i1 %16, i64 %17, i64 %.05881.i
  %.1.i = select i1 %16, float %15, float %.085.i
  %18 = fcmp ogt float %15, %.04784.i
  %.154.i = select i1 %18, i64 %17, i64 %.05382.i
  %.148.i = select i1 %18, float %15, float %.04784.i
  %indvars.iv.next94.i = add nuw nsw i64 %indvars.iv93.i, 1
  %exitcond97.not.i = icmp eq i64 %indvars.iv.next94.i, %wide.trip.count96.i
  br i1 %exitcond97.not.i, label %_ZN2cvL10minMaxIdx_IffEEvPKT_PKhPT0_S7_PmS8_im.exit, label %.lr.ph86.i, !llvm.loop !76

.lr.ph.i:                                         ; preds = %.lr.ph.i, %.lr.ph.preheader.i
  %indvars.iv.i = phi i64 [ 0, %.lr.ph.preheader.i ], [ %indvars.iv.next.i, %.lr.ph.i ]
  %.377.i = phi float [ %9, %.lr.ph.preheader.i ], [ %.4.i, %.lr.ph.i ]
  %.35075.i = phi float [ %10, %.lr.ph.preheader.i ], [ %.451.i, %.lr.ph.i ]
  %.35674.i = phi i64 [ %12, %.lr.ph.preheader.i ], [ %.457.i, %.lr.ph.i ]
  %.36173.i = phi i64 [ %11, %.lr.ph.preheader.i ], [ %.462.i, %.lr.ph.i ]
  %19 = getelementptr inbounds nuw float, ptr %0, i64 %indvars.iv.i
  %20 = load float, ptr %19, align 4, !tbaa !36
  %21 = getelementptr inbounds nuw i8, ptr %1, i64 %indvars.iv.i
  %22 = load i8, ptr %21, align 1, !tbaa !63
  %.not68.i = icmp ne i8 %22, 0
  %23 = fcmp olt float %20, %.377.i
  %or.cond.i = select i1 %.not68.i, i1 %23, i1 false
  %24 = add i64 %indvars.iv.i, %7
  %.462.i = select i1 %or.cond.i, i64 %24, i64 %.36173.i
  %.4.i = select i1 %or.cond.i, float %20, float %.377.i
  %25 = fcmp ogt float %20, %.35075.i
  %or.cond70.i = select i1 %.not68.i, i1 %25, i1 false
  %.457.i = select i1 %or.cond70.i, i64 %24, i64 %.35674.i
  %.451.i = select i1 %or.cond70.i, float %20, float %.35075.i
  %indvars.iv.next.i = add nuw nsw i64 %indvars.iv.i, 1
  %exitcond.not.i = icmp eq i64 %indvars.iv.next.i, %wide.trip.count.i
  br i1 %exitcond.not.i, label %_ZN2cvL10minMaxIdx_IffEEvPKT_PKhPT0_S7_PmS8_im.exit, label %.lr.ph.i, !llvm.loop !77

_ZN2cvL10minMaxIdx_IffEEvPKT_PKhPT0_S7_PmS8_im.exit: ; preds = %.lr.ph.i, %.lr.ph86.i, %.preheader71.i, %.preheader.i
  %.260.i = phi i64 [ %11, %.preheader.i ], [ %11, %.preheader71.i ], [ %.159.i, %.lr.ph86.i ], [ %.462.i, %.lr.ph.i ]
  %.255.i = phi i64 [ %12, %.preheader.i ], [ %12, %.preheader71.i ], [ %.154.i, %.lr.ph86.i ], [ %.457.i, %.lr.ph.i ]
  %.249.i = phi float [ %10, %.preheader.i ], [ %10, %.preheader71.i ], [ %.148.i, %.lr.ph86.i ], [ %.451.i, %.lr.ph.i ]
  %.2.i = phi float [ %9, %.preheader.i ], [ %9, %.preheader71.i ], [ %.1.i, %.lr.ph86.i ], [ %.4.i, %.lr.ph.i ]
  store i64 %.260.i, ptr %4, align 8, !tbaa !34
  store i64 %.255.i, ptr %5, align 8, !tbaa !34
  store float %.2.i, ptr %2, align 4, !tbaa !36
  store float %.249.i, ptr %3, align 4, !tbaa !36
  ret void
}